#include <math.h>
#include <stdio.h>
#include <stdlib.h>
#include <string.h>

void main()
{
int x1,x2,y1,y2,m, a[100][100],b[100][100],i,j,c[100][100]={0};
scanf("%d",&x1);scanf("%d",&y1);
for(i=0;i<x1;i++)
{
	for(j=0;j<y1;j++)
		scanf("%d",&a[i][j]);
}
scanf("%d",&x2);scanf("%d",&y2);
for(i=0;i<x2;i++)
{
	for(j=0;j<y2;j++)
		scanf("%d",&b[i][j]);
}



for(i=0;i<x1;i++)
{
for(j=0;j<y2;j++)
{
for(m=0;m<x2;m++)
c[i][j]+=a[i][m]*b[m][j];
}
}
for(i=0;i<x1;i++)
{
for(j=0;j<y2-1;j++)
printf("%d ",c[i][j]);
printf("%d\n",c[i][y2-1]);
}
}