; ModuleID = '63/606.c'
source_filename = "63/606.c"
target datalayout = "e-m:e-p270:32:32-p271:32:32-p272:64:64-i64:64-f80:128-n8:16:32:64-S128"
target triple = "x86_64-pc-linux-gnu"

@.str = private unnamed_addr constant [3 x i8] c"%d\00", align 1
@.str.1 = private unnamed_addr constant [4 x i8] c"%d \00", align 1
@.str.2 = private unnamed_addr constant [4 x i8] c"%d\0A\00", align 1

; Function Attrs: noinline nounwind uwtable
define dso_local void @main() #0 {
  %1 = alloca i32, align 4
  %2 = alloca i32, align 4
  %3 = alloca i32, align 4
  %4 = alloca i32, align 4
  %5 = alloca i32, align 4
  %6 = alloca [100 x [100 x i32]], align 16
  %7 = alloca [100 x [100 x i32]], align 16
  %8 = alloca i32, align 4
  %9 = alloca i32, align 4
  %10 = alloca [100 x [100 x i32]], align 16
  %11 = bitcast [100 x [100 x i32]]* %10 to i8*
  call void @llvm.memset.p0i8.i64(i8* align 16 %11, i8 0, i64 40000, i1 false)
  %12 = call i32 (i8*, ...) @__isoc99_scanf(i8* getelementptr inbounds ([3 x i8], [3 x i8]* @.str, i64 0, i64 0), i32* %1)
  %13 = call i32 (i8*, ...) @__isoc99_scanf(i8* getelementptr inbounds ([3 x i8], [3 x i8]* @.str, i64 0, i64 0), i32* %3)
  store i32 0, i32* %8, align 4
  br label %14

14:                                               ; preds = %35, %0
  %15 = load i32, i32* %8, align 4
  %16 = load i32, i32* %1, align 4
  %17 = icmp slt i32 %15, %16
  br i1 %17, label %18, label %38

18:                                               ; preds = %14
  store i32 0, i32* %9, align 4
  br label %19

19:                                               ; preds = %31, %18
  %20 = load i32, i32* %9, align 4
  %21 = load i32, i32* %3, align 4
  %22 = icmp slt i32 %20, %21
  br i1 %22, label %23, label %34

23:                                               ; preds = %19
  %24 = load i32, i32* %8, align 4
  %25 = sext i32 %24 to i64
  %26 = getelementptr inbounds [100 x [100 x i32]], [100 x [100 x i32]]* %6, i64 0, i64 %25
  %27 = load i32, i32* %9, align 4
  %28 = sext i32 %27 to i64
  %29 = getelementptr inbounds [100 x i32], [100 x i32]* %26, i64 0, i64 %28
  %30 = call i32 (i8*, ...) @__isoc99_scanf(i8* getelementptr inbounds ([3 x i8], [3 x i8]* @.str, i64 0, i64 0), i32* %29)
  br label %31

31:                                               ; preds = %23
  %32 = load i32, i32* %9, align 4
  %33 = add nsw i32 %32, 1
  store i32 %33, i32* %9, align 4
  br label %19

34:                                               ; preds = %19
  br label %35

35:                                               ; preds = %34
  %36 = load i32, i32* %8, align 4
  %37 = add nsw i32 %36, 1
  store i32 %37, i32* %8, align 4
  br label %14

38:                                               ; preds = %14
  %39 = call i32 (i8*, ...) @__isoc99_scanf(i8* getelementptr inbounds ([3 x i8], [3 x i8]* @.str, i64 0, i64 0), i32* %2)
  %40 = call i32 (i8*, ...) @__isoc99_scanf(i8* getelementptr inbounds ([3 x i8], [3 x i8]* @.str, i64 0, i64 0), i32* %4)
  store i32 0, i32* %8, align 4
  br label %41

41:                                               ; preds = %62, %38
  %42 = load i32, i32* %8, align 4
  %43 = load i32, i32* %2, align 4
  %44 = icmp slt i32 %42, %43
  br i1 %44, label %45, label %65

45:                                               ; preds = %41
  store i32 0, i32* %9, align 4
  br label %46

46:                                               ; preds = %58, %45
  %47 = load i32, i32* %9, align 4
  %48 = load i32, i32* %4, align 4
  %49 = icmp slt i32 %47, %48
  br i1 %49, label %50, label %61

50:                                               ; preds = %46
  %51 = load i32, i32* %8, align 4
  %52 = sext i32 %51 to i64
  %53 = getelementptr inbounds [100 x [100 x i32]], [100 x [100 x i32]]* %7, i64 0, i64 %52
  %54 = load i32, i32* %9, align 4
  %55 = sext i32 %54 to i64
  %56 = getelementptr inbounds [100 x i32], [100 x i32]* %53, i64 0, i64 %55
  %57 = call i32 (i8*, ...) @__isoc99_scanf(i8* getelementptr inbounds ([3 x i8], [3 x i8]* @.str, i64 0, i64 0), i32* %56)
  br label %58

58:                                               ; preds = %50
  %59 = load i32, i32* %9, align 4
  %60 = add nsw i32 %59, 1
  store i32 %60, i32* %9, align 4
  br label %46

61:                                               ; preds = %46
  br label %62

62:                                               ; preds = %61
  %63 = load i32, i32* %8, align 4
  %64 = add nsw i32 %63, 1
  store i32 %64, i32* %8, align 4
  br label %41

65:                                               ; preds = %41
  store i32 0, i32* %8, align 4
  br label %66

66:                                               ; preds = %112, %65
  %67 = load i32, i32* %8, align 4
  %68 = load i32, i32* %1, align 4
  %69 = icmp slt i32 %67, %68
  br i1 %69, label %70, label %115

70:                                               ; preds = %66
  store i32 0, i32* %9, align 4
  br label %71

71:                                               ; preds = %108, %70
  %72 = load i32, i32* %9, align 4
  %73 = load i32, i32* %4, align 4
  %74 = icmp slt i32 %72, %73
  br i1 %74, label %75, label %111

75:                                               ; preds = %71
  store i32 0, i32* %5, align 4
  br label %76

76:                                               ; preds = %104, %75
  %77 = load i32, i32* %5, align 4
  %78 = load i32, i32* %2, align 4
  %79 = icmp slt i32 %77, %78
  br i1 %79, label %80, label %107

80:                                               ; preds = %76
  %81 = load i32, i32* %8, align 4
  %82 = sext i32 %81 to i64
  %83 = getelementptr inbounds [100 x [100 x i32]], [100 x [100 x i32]]* %6, i64 0, i64 %82
  %84 = load i32, i32* %5, align 4
  %85 = sext i32 %84 to i64
  %86 = getelementptr inbounds [100 x i32], [100 x i32]* %83, i64 0, i64 %85
  %87 = load i32, i32* %86, align 4
  %88 = load i32, i32* %5, align 4
  %89 = sext i32 %88 to i64
  %90 = getelementptr inbounds [100 x [100 x i32]], [100 x [100 x i32]]* %7, i64 0, i64 %89
  %91 = load i32, i32* %9, align 4
  %92 = sext i32 %91 to i64
  %93 = getelementptr inbounds [100 x i32], [100 x i32]* %90, i64 0, i64 %92
  %94 = load i32, i32* %93, align 4
  %95 = mul nsw i32 %87, %94
  %96 = load i32, i32* %8, align 4
  %97 = sext i32 %96 to i64
  %98 = getelementptr inbounds [100 x [100 x i32]], [100 x [100 x i32]]* %10, i64 0, i64 %97
  %99 = load i32, i32* %9, align 4
  %100 = sext i32 %99 to i64
  %101 = getelementptr inbounds [100 x i32], [100 x i32]* %98, i64 0, i64 %100
  %102 = load i32, i32* %101, align 4
  %103 = add nsw i32 %102, %95
  store i32 %103, i32* %101, align 4
  br label %104

104:                                              ; preds = %80
  %105 = load i32, i32* %5, align 4
  %106 = add nsw i32 %105, 1
  store i32 %106, i32* %5, align 4
  br label %76

107:                                              ; preds = %76
  br label %108

108:                                              ; preds = %107
  %109 = load i32, i32* %9, align 4
  %110 = add nsw i32 %109, 1
  store i32 %110, i32* %9, align 4
  br label %71

111:                                              ; preds = %71
  br label %112

112:                                              ; preds = %111
  %113 = load i32, i32* %8, align 4
  %114 = add nsw i32 %113, 1
  store i32 %114, i32* %8, align 4
  br label %66

115:                                              ; preds = %66
  store i32 0, i32* %8, align 4
  br label %116

116:                                              ; preds = %148, %115
  %117 = load i32, i32* %8, align 4
  %118 = load i32, i32* %1, align 4
  %119 = icmp slt i32 %117, %118
  br i1 %119, label %120, label %151

120:                                              ; preds = %116
  store i32 0, i32* %9, align 4
  br label %121

121:                                              ; preds = %135, %120
  %122 = load i32, i32* %9, align 4
  %123 = load i32, i32* %4, align 4
  %124 = sub nsw i32 %123, 1
  %125 = icmp slt i32 %122, %124
  br i1 %125, label %126, label %138

126:                                              ; preds = %121
  %127 = load i32, i32* %8, align 4
  %128 = sext i32 %127 to i64
  %129 = getelementptr inbounds [100 x [100 x i32]], [100 x [100 x i32]]* %10, i64 0, i64 %128
  %130 = load i32, i32* %9, align 4
  %131 = sext i32 %130 to i64
  %132 = getelementptr inbounds [100 x i32], [100 x i32]* %129, i64 0, i64 %131
  %133 = load i32, i32* %132, align 4
  %134 = call i32 (i8*, ...) @printf(i8* getelementptr inbounds ([4 x i8], [4 x i8]* @.str.1, i64 0, i64 0), i32 %133)
  br label %135

135:                                              ; preds = %126
  %136 = load i32, i32* %9, align 4
  %137 = add nsw i32 %136, 1
  store i32 %137, i32* %9, align 4
  br label %121

138:                                              ; preds = %121
  %139 = load i32, i32* %8, align 4
  %140 = sext i32 %139 to i64
  %141 = getelementptr inbounds [100 x [100 x i32]], [100 x [100 x i32]]* %10, i64 0, i64 %140
  %142 = load i32, i32* %4, align 4
  %143 = sub nsw i32 %142, 1
  %144 = sext i32 %143 to i64
  %145 = getelementptr inbounds [100 x i32], [100 x i32]* %141, i64 0, i64 %144
  %146 = load i32, i32* %145, align 4
  %147 = call i32 (i8*, ...) @printf(i8* getelementptr inbounds ([4 x i8], [4 x i8]* @.str.2, i64 0, i64 0), i32 %146)
  br label %148

148:                                              ; preds = %138
  %149 = load i32, i32* %8, align 4
  %150 = add nsw i32 %149, 1
  store i32 %150, i32* %8, align 4
  br label %116

151:                                              ; preds = %116
  ret void
}

; Function Attrs: argmemonly nounwind willreturn
declare void @llvm.memset.p0i8.i64(i8* nocapture writeonly, i8, i64, i1 immarg) #1

declare dso_local i32 @__isoc99_scanf(i8*, ...) #2

declare dso_local i32 @printf(i8*, ...) #2


!llvm.module.flags = !{!0}
!llvm.ident = !{!1}

!0 = !{i32 1, !"wchar_size", i32 4}
!1 = !{!"clang version 10.0.0-4ubuntu1 "}
